target datalayout = "e-m:e-p270:32:32-p271:32:32-p272:64:64-i64:64-i128:128-f80:128-n8:16:32:64-S128"
target triple = "x86_64-pc-linux-gnu"

%struct.AVFilterContext = type { ptr, ptr, ptr, ptr, ptr, i32, ptr, ptr, i32, ptr, ptr, i32, i32, ptr, ptr, ptr, ptr, i32, ptr, i32, i32 }
%struct.BufferSinkContext = type { ptr, i32, i32, ptr, i32, ptr, i32, ptr, i32, ptr, i32, ptr, i32, ptr, i32, ptr, i32, ptr, i32, ptr, i32, ptr, i32, ptr, i32, ptr, i32, ptr }

; Function Attrs: nounwind uwtable
define internal i32 @init_video(ptr noundef %0) #0 {
  %2 = alloca i32, align 4
  %3 = alloca ptr, align 8
  %4 = alloca ptr, align 8
  %5 = alloca ptr, align 8
  %6 = alloca i32, align 4
  %7 = alloca ptr, align 8
  %8 = alloca ptr, align 8
  store ptr %0, ptr %3, align 8, !tbaa !4
  call void @llvm.lifetime.start.p0(i64 8, ptr %4) #9
  %9 = load ptr, ptr %3, align 8, !tbaa !4
  %10 = getelementptr inbounds nuw %struct.AVFilterContext, ptr %9, i32 0, i32 9
  %11 = load ptr, ptr %10, align 8, !tbaa !37
  store ptr %11, ptr %4, align 8, !tbaa !38
  %12 = load ptr, ptr %4, align 8, !tbaa !38
  %13 = getelementptr inbounds nuw %struct.BufferSinkContext, ptr %12, i32 0, i32 9
  %14 = load ptr, ptr %13, align 8, !tbaa !82
  %15 = icmp ne ptr %14, null
  br i1 %15, label %16, label %44

16:                                               ; preds = %1
  call void @llvm.lifetime.start.p0(i64 8, ptr %5) #9
  %17 = load ptr, ptr %4, align 8, !tbaa !38
  %18 = getelementptr inbounds nuw %struct.BufferSinkContext, ptr %17, i32 0, i32 9
  %19 = load ptr, ptr %18, align 8, !tbaa !82
  %20 = load ptr, ptr %4, align 8, !tbaa !38
  %21 = getelementptr inbounds nuw %struct.BufferSinkContext, ptr %20, i32 0, i32 10
  %22 = load i32, ptr %21, align 8, !tbaa !83
  %23 = add i32 %22, 1
  %24 = zext i32 %23 to i64
  %25 = call ptr @av_realloc_array(ptr noundef %19, i64 noundef %24, i64 noundef 4)
  store ptr %25, ptr %5, align 8, !tbaa !78
  %26 = load ptr, ptr %5, align 8, !tbaa !78
  %27 = icmp ne ptr %26, null
  br i1 %27, label %29, label %28

28:                                               ; preds = %16
  store i32 -12, ptr %2, align 4
  store i32 1, ptr %6, align 4
  br label %41

29:                                               ; preds = %16
  %30 = load ptr, ptr %5, align 8, !tbaa !78
  %31 = load ptr, ptr %4, align 8, !tbaa !38
  %32 = getelementptr inbounds nuw %struct.BufferSinkContext, ptr %31, i32 0, i32 9
  store ptr %30, ptr %32, align 8, !tbaa !82
  %33 = load ptr, ptr %4, align 8, !tbaa !38
  %34 = getelementptr inbounds nuw %struct.BufferSinkContext, ptr %33, i32 0, i32 9
  %35 = load ptr, ptr %34, align 8, !tbaa !82
  %36 = load ptr, ptr %4, align 8, !tbaa !38
  %37 = getelementptr inbounds nuw %struct.BufferSinkContext, ptr %36, i32 0, i32 10
  %38 = load i32, ptr %37, align 8, !tbaa !83
  %39 = zext i32 %38 to i64
  %40 = getelementptr inbounds nuw i32, ptr %35, i64 %39
  store i32 -1, ptr %40, align 4, !tbaa !11
  store i32 0, ptr %6, align 4
  br label %41

41:                                               ; preds = %29, %28
  call void @llvm.lifetime.end.p0(i64 8, ptr %5) #9
  %42 = load i32, ptr %6, align 4
  switch i32 %42, label %113 [
    i32 0, label %43
  ]

43:                                               ; preds = %41
  br label %44

44:                                               ; preds = %43, %1
  %45 = load ptr, ptr %4, align 8, !tbaa !38
  %46 = getelementptr inbounds nuw %struct.BufferSinkContext, ptr %45, i32 0, i32 13
  %47 = load ptr, ptr %46, align 8, !tbaa !84
  %48 = icmp ne ptr %47, null
  br i1 %48, label %49, label %77

49:                                               ; preds = %44
  call void @llvm.lifetime.start.p0(i64 8, ptr %7) #9
  %50 = load ptr, ptr %4, align 8, !tbaa !38
  %51 = getelementptr inbounds nuw %struct.BufferSinkContext, ptr %50, i32 0, i32 13
  %52 = load ptr, ptr %51, align 8, !tbaa !84
  %53 = load ptr, ptr %4, align 8, !tbaa !38
  %54 = getelementptr inbounds nuw %struct.BufferSinkContext, ptr %53, i32 0, i32 14
  %55 = load i32, ptr %54, align 8, !tbaa !85
  %56 = add i32 %55, 1
  %57 = zext i32 %56 to i64
  %58 = call ptr @av_realloc_array(ptr noundef %52, i64 noundef %57, i64 noundef 4)
  store ptr %58, ptr %7, align 8, !tbaa !78
  %59 = load ptr, ptr %7, align 8, !tbaa !78
  %60 = icmp ne ptr %59, null
  br i1 %60, label %62, label %61

61:                                               ; preds = %49
  store i32 -12, ptr %2, align 4
  store i32 1, ptr %6, align 4
  br label %74

62:                                               ; preds = %49
  %63 = load ptr, ptr %7, align 8, !tbaa !78
  %64 = load ptr, ptr %4, align 8, !tbaa !38
  %65 = getelementptr inbounds nuw %struct.BufferSinkContext, ptr %64, i32 0, i32 13
  store ptr %63, ptr %65, align 8, !tbaa !84
  %66 = load ptr, ptr %4, align 8, !tbaa !38
  %67 = getelementptr inbounds nuw %struct.BufferSinkContext, ptr %66, i32 0, i32 13
  %68 = load ptr, ptr %67, align 8, !tbaa !84
  %69 = load ptr, ptr %4, align 8, !tbaa !38
  %70 = getelementptr inbounds nuw %struct.BufferSinkContext, ptr %69, i32 0, i32 14
  %71 = load i32, ptr %70, align 8, !tbaa !85
  %72 = zext i32 %71 to i64
  %73 = getelementptr inbounds nuw i32, ptr %68, i64 %72
  store i32 -1, ptr %73, align 4, !tbaa !11
  store i32 0, ptr %6, align 4
  br label %74

74:                                               ; preds = %62, %61
  call void @llvm.lifetime.end.p0(i64 8, ptr %7) #9
  %75 = load i32, ptr %6, align 4
  switch i32 %75, label %113 [
    i32 0, label %76
  ]

76:                                               ; preds = %74
  br label %77

77:                                               ; preds = %76, %44
  %78 = load ptr, ptr %4, align 8, !tbaa !38
  %79 = getelementptr inbounds nuw %struct.BufferSinkContext, ptr %78, i32 0, i32 11
  %80 = load ptr, ptr %79, align 8, !tbaa !86
  %81 = icmp ne ptr %80, null
  br i1 %81, label %82, label %110

82:                                               ; preds = %77
  call void @llvm.lifetime.start.p0(i64 8, ptr %8) #9
  %83 = load ptr, ptr %4, align 8, !tbaa !38
  %84 = getelementptr inbounds nuw %struct.BufferSinkContext, ptr %83, i32 0, i32 11
  %85 = load ptr, ptr %84, align 8, !tbaa !86
  %86 = load ptr, ptr %4, align 8, !tbaa !38
  %87 = getelementptr inbounds nuw %struct.BufferSinkContext, ptr %86, i32 0, i32 12
  %88 = load i32, ptr %87, align 8, !tbaa !87
  %89 = add i32 %88, 1
  %90 = zext i32 %89 to i64
  %91 = call ptr @av_realloc_array(ptr noundef %85, i64 noundef %90, i64 noundef 4)
  store ptr %91, ptr %8, align 8, !tbaa !78
  %92 = load ptr, ptr %8, align 8, !tbaa !78
  %93 = icmp ne ptr %92, null
  br i1 %93, label %95, label %94

94:                                               ; preds = %82
  store i32 -12, ptr %2, align 4
  store i32 1, ptr %6, align 4
  br label %107

95:                                               ; preds = %82
  %96 = load ptr, ptr %8, align 8, !tbaa !78
  %97 = load ptr, ptr %4, align 8, !tbaa !38
  %98 = getelementptr inbounds nuw %struct.BufferSinkContext, ptr %97, i32 0, i32 11
  store ptr %96, ptr %98, align 8, !tbaa !86
  %99 = load ptr, ptr %4, align 8, !tbaa !38
  %100 = getelementptr inbounds nuw %struct.BufferSinkContext, ptr %99, i32 0, i32 11
  %101 = load ptr, ptr %100, align 8, !tbaa !86
  %102 = load ptr, ptr %4, align 8, !tbaa !38
  %103 = getelementptr inbounds nuw %struct.BufferSinkContext, ptr %102, i32 0, i32 12
  %104 = load i32, ptr %103, align 8, !tbaa !87
  %105 = zext i32 %104 to i64
  %106 = getelementptr inbounds nuw i32, ptr %101, i64 %105
  store i32 -1, ptr %106, align 4, !tbaa !11
  store i32 0, ptr %6, align 4
  br label %107

107:                                              ; preds = %95, %94
  call void @llvm.lifetime.end.p0(i64 8, ptr %8) #9
  %108 = load i32, ptr %6, align 4
  switch i32 %108, label %113 [
    i32 0, label %109
  ]

109:                                              ; preds = %107
  br label %110

110:                                              ; preds = %109, %77
  %111 = load ptr, ptr %3, align 8, !tbaa !4
  %112 = call i32 @common_init(ptr noundef %111) #11
  store i32 %112, ptr %2, align 4
  store i32 1, ptr %6, align 4
  br label %113

113:                                              ; preds = %110, %107, %74, %41
  call void @llvm.lifetime.end.p0(i64 8, ptr %4) #9
  %114 = load i32, ptr %2, align 4
  ret i32 %114
}