; Function Attrs: nounwind uwtable
define internal range(i32 -2147483648, 1) i32 @init_video(ptr noundef %0) #0 {
  %2 = getelementptr inbounds nuw i8, ptr %0, i64 72
  %3 = load ptr, ptr %2, align 8, !tbaa !33
  %4 = getelementptr inbounds nuw i8, ptr %3, i64 64
  %5 = load ptr, ptr %4, align 8, !tbaa !72
  %.not = icmp eq ptr %5, null
  br i1 %.not, label %16, label %6

6:                                                ; preds = %1
  %7 = getelementptr inbounds nuw i8, ptr %3, i64 72
  %8 = load i32, ptr %7, align 8, !tbaa !73
  %9 = add i32 %8, 1
  %10 = zext i32 %9 to i64
  %11 = tail call ptr @av_realloc_array(ptr noundef nonnull %5, i64 noundef %10, i64 noundef 4) #10
  %.not39.not = icmp eq ptr %11, null
  br i1 %.not39.not, label %.critedge, label %12

12:                                               ; preds = %6
  store ptr %11, ptr %4, align 8, !tbaa !72
  %13 = load i32, ptr %7, align 8, !tbaa !73
  %14 = zext i32 %13 to i64
  %15 = getelementptr inbounds nuw i32, ptr %11, i64 %14
  store i32 -1, ptr %15, align 4, !tbaa !47
  br label %16

16:                                               ; preds = %12, %1
  %17 = getelementptr inbounds nuw i8, ptr %3, i64 96
  %18 = load ptr, ptr %17, align 8, !tbaa !74
  %.not40 = icmp eq ptr %18, null
  br i1 %.not40, label %29, label %19

19:                                               ; preds = %16
  %20 = getelementptr inbounds nuw i8, ptr %3, i64 104
  %21 = load i32, ptr %20, align 8, !tbaa !75
  %22 = add i32 %21, 1
  %23 = zext i32 %22 to i64
  %24 = tail call ptr @av_realloc_array(ptr noundef nonnull %18, i64 noundef %23, i64 noundef 4) #10
  %.not41.not = icmp eq ptr %24, null
  br i1 %.not41.not, label %.critedge, label %25

25:                                               ; preds = %19
  store ptr %24, ptr %17, align 8, !tbaa !74
  %26 = load i32, ptr %20, align 8, !tbaa !75
  %27 = zext i32 %26 to i64
  %28 = getelementptr inbounds nuw i32, ptr %24, i64 %27
  store i32 -1, ptr %28, align 4, !tbaa !47
  br label %29

29:                                               ; preds = %25, %16
  %30 = getelementptr inbounds nuw i8, ptr %3, i64 80
  %31 = load ptr, ptr %30, align 8, !tbaa !76
  %.not42 = icmp eq ptr %31, null
  br i1 %.not42, label %42, label %32

32:                                               ; preds = %29
  %33 = getelementptr inbounds nuw i8, ptr %3, i64 88
  %34 = load i32, ptr %33, align 8, !tbaa !77
  %35 = add i32 %34, 1
  %36 = zext i32 %35 to i64
  %37 = tail call ptr @av_realloc_array(ptr noundef nonnull %31, i64 noundef %36, i64 noundef 4) #10
  %.not43.not = icmp eq ptr %37, null
  br i1 %.not43.not, label %.critedge, label %38

38:                                               ; preds = %32
  store ptr %37, ptr %30, align 8, !tbaa !76
  %39 = load i32, ptr %33, align 8, !tbaa !77
  %40 = zext i32 %39 to i64
  %41 = getelementptr inbounds nuw i32, ptr %37, i64 %40
  store i32 -1, ptr %41, align 4, !tbaa !47
  br label %42

42:                                               ; preds = %38, %29
  %43 = tail call fastcc i32 @common_init(ptr noundef nonnull %0) #12
  br label %.critedge

.critedge:                                        ; preds = %32, %19, %6, %42
  %.2 = phi i32 [ %43, %42 ], [ -12, %6 ], [ -12, %19 ], [ -12, %32 ]
  ret i32 %.2
}